; ModuleID = 'source-C-CXX/18/121.c'
source_filename = "source-C-CXX/18/121.c"
target datalayout = "e-m:e-p270:32:32-p271:32:32-p272:64:64-i64:64-f80:128-n8:16:32:64-S128"
target triple = "x86_64-pc-linux-gnu"

@.str = private unnamed_addr constant [4 x i8] c"%s \00", align 1

; Function Attrs: nounwind sspstrong uwtable
define dso_local i32 @main() local_unnamed_addr #0 {
  %1 = alloca [100 x i8], align 16
  %2 = alloca [100 x i8], align 16
  %3 = alloca [100 x i8], align 16
  %4 = alloca [100 x i8], align 16
  %5 = getelementptr inbounds [100 x i8], [100 x i8]* %1, i64 0, i64 0
  call void @llvm.lifetime.start.p0i8(i64 100, i8* nonnull %5) #6
  %6 = getelementptr inbounds [100 x i8], [100 x i8]* %2, i64 0, i64 0
  call void @llvm.lifetime.start.p0i8(i64 100, i8* nonnull %6) #6
  %7 = getelementptr inbounds [100 x i8], [100 x i8]* %3, i64 0, i64 0
  call void @llvm.lifetime.start.p0i8(i64 100, i8* nonnull %7) #6
  %8 = getelementptr inbounds [100 x i8], [100 x i8]* %4, i64 0, i64 0
  call void @llvm.lifetime.start.p0i8(i64 100, i8* nonnull %8) #6
  %9 = call i32 (i8*, ...) bitcast (i32 (...)* @gets to i32 (i8*, ...)*)(i8* nonnull %5) #6
  %10 = call i32 (i8*, ...) bitcast (i32 (...)* @gets to i32 (i8*, ...)*)(i8* nonnull %6) #6
  %11 = call i32 (i8*, ...) bitcast (i32 (...)* @gets to i32 (i8*, ...)*)(i8* nonnull %7) #6
  %12 = load i8, i8* %5, align 16, !tbaa !5
  %13 = icmp eq i8 %12, 0
  br i1 %13, label %52, label %14

14:                                               ; preds = %0, %45
  %15 = phi i64 [ %48, %45 ], [ 0, %0 ]
  %16 = phi i8 [ %50, %45 ], [ %12, %0 ]
  %17 = phi i32 [ %47, %45 ], [ 0, %0 ]
  %18 = phi i32 [ %46, %45 ], [ 0, %0 ]
  %19 = icmp eq i32 %17, 1
  %20 = xor i1 %19, true
  %21 = icmp eq i8 %16, 32
  %22 = select i1 %20, i1 true, i1 %21
  br i1 %22, label %27, label %23

23:                                               ; preds = %14
  %24 = sext i32 %18 to i64
  %25 = getelementptr inbounds [100 x i8], [100 x i8]* %4, i64 0, i64 %24
  store i8 %16, i8* %25, align 1, !tbaa !5
  %26 = add nsw i32 %18, 1
  br label %45

27:                                               ; preds = %14
  %28 = icmp eq i32 %17, 0
  br i1 %28, label %29, label %31

29:                                               ; preds = %27
  br i1 %21, label %42, label %30

30:                                               ; preds = %29
  store i8 %16, i8* %8, align 16, !tbaa !5
  br label %45

31:                                               ; preds = %27
  %32 = select i1 %19, i1 %21, i1 false
  br i1 %32, label %33, label %42

33:                                               ; preds = %31
  %34 = sext i32 %18 to i64
  %35 = getelementptr inbounds [100 x i8], [100 x i8]* %4, i64 0, i64 %34
  store i8 0, i8* %35, align 1, !tbaa !5
  %36 = call i32 @strcmp(i8* noundef nonnull %8, i8* noundef nonnull %6) #7
  %37 = icmp eq i32 %36, 0
  br i1 %37, label %38, label %40

38:                                               ; preds = %33
  %39 = call i32 (i8*, ...) @printf(i8* nonnull dereferenceable(1) getelementptr inbounds ([4 x i8], [4 x i8]* @.str, i64 0, i64 0), i8* nonnull %7)
  br label %45

40:                                               ; preds = %33
  %41 = call i32 (i8*, ...) @printf(i8* nonnull dereferenceable(1) getelementptr inbounds ([4 x i8], [4 x i8]* @.str, i64 0, i64 0), i8* nonnull %8)
  br label %45

42:                                               ; preds = %31, %29
  %43 = sext i8 %16 to i32
  %44 = call i32 @putchar(i32 %43)
  br label %45

45:                                               ; preds = %38, %40, %23, %42, %30
  %46 = phi i32 [ %26, %23 ], [ 1, %30 ], [ %18, %42 ], [ 0, %40 ], [ 0, %38 ]
  %47 = phi i32 [ 1, %23 ], [ 1, %30 ], [ %17, %42 ], [ 0, %40 ], [ 0, %38 ]
  %48 = add nuw i64 %15, 1
  %49 = getelementptr inbounds [100 x i8], [100 x i8]* %1, i64 0, i64 %48
  %50 = load i8, i8* %49, align 1, !tbaa !5
  %51 = icmp eq i8 %50, 0
  br i1 %51, label %52, label %14, !llvm.loop !8

52:                                               ; preds = %45, %0
  %53 = phi i32 [ 0, %0 ], [ %46, %45 ]
  %54 = sext i32 %53 to i64
  %55 = getelementptr inbounds [100 x i8], [100 x i8]* %4, i64 0, i64 %54
  store i8 0, i8* %55, align 1, !tbaa !5
  %56 = call i32 @strcmp(i8* noundef nonnull %8, i8* noundef nonnull %6) #7
  %57 = icmp eq i32 %56, 0
  %58 = select i1 %57, i8* %7, i8* %8
  %59 = call i32 @puts(i8* nonnull %58)
  call void @llvm.lifetime.end.p0i8(i64 100, i8* nonnull %8) #6
  call void @llvm.lifetime.end.p0i8(i64 100, i8* nonnull %7) #6
  call void @llvm.lifetime.end.p0i8(i64 100, i8* nonnull %6) #6
  call void @llvm.lifetime.end.p0i8(i64 100, i8* nonnull %5) #6
  ret i32 0
}

; Function Attrs: argmemonly mustprogress nofree nosync nounwind willreturn
declare void @llvm.lifetime.start.p0i8(i64 immarg, i8* nocapture) #1

declare i32 @gets(...) local_unnamed_addr #2

; Function Attrs: argmemonly mustprogress nofree nounwind readonly willreturn
declare i32 @strcmp(i8* nocapture, i8* nocapture) local_unnamed_addr #3

; Function Attrs: nofree nounwind
declare noundef i32 @printf(i8* nocapture noundef readonly, ...) local_unnamed_addr #4

; Function Attrs: argmemonly mustprogress nofree nosync nounwind willreturn
declare void @llvm.lifetime.end.p0i8(i64 immarg, i8* nocapture) #1

; Function Attrs: nofree nounwind
declare noundef i32 @puts(i8* nocapture noundef readonly) local_unnamed_addr #5

; Function Attrs: nofree nounwind
declare noundef i32 @putchar(i32 noundef) local_unnamed_addr #5


!llvm.module.flags = !{!0, !1, !2, !3}
!llvm.ident = !{!4}

!0 = !{i32 1, !"wchar_size", i32 4}
!1 = !{i32 7, !"PIC Level", i32 2}
!2 = !{i32 7, !"PIE Level", i32 2}
!3 = !{i32 7, !"uwtable", i32 1}
!4 = !{!"clang version 13.0.0"}
!5 = !{!6, !6, i64 0}
!6 = !{!"omnipotent char", !7, i64 0}
!7 = !{!"Simple C/C++ TBAA"}
!8 = distinct !{!8, !9}
!9 = !{!"llvm.loop.mustprogress"}
